target datalayout = "e-m:e-p270:32:32-p271:32:32-p272:64:64-i64:64-i128:128-f80:128-n8:16:32:64-S128"
target triple = "x86_64-pc-linux-gnu"

%struct.imageIODataStruct = type { ptr, ptr, %struct.streamBufferStruct, %struct.pixelBufferStruct, i8 }
%struct.streamBufferStruct = type { ptr, ptr, ptr, i64, i64, i32, i64 }
%struct.pixelBufferStruct = type { ptr, i32, %union.pixptr }
%union.pixptr = type { ptr }

@.str.25 = private unnamed_addr constant [32 x i8] c"java/lang/IllegalStateException\00", align 1
@.str.37 = private unnamed_addr constant [41 x i8] c"Attempting to use writer after dispose()\00", align 1

; Function Attrs: nounwind uwtable
define internal void @imageio_abort(ptr noundef %0, ptr noundef %1, ptr noundef %2) #0 {
  %4 = alloca ptr, align 8
  %5 = alloca ptr, align 8
  %6 = alloca ptr, align 8
  store ptr %0, ptr %4, align 8
  store ptr %1, ptr %5, align 8
  store ptr %2, ptr %6, align 8
  %7 = load ptr, ptr %6, align 8
  %8 = getelementptr inbounds %struct.imageIODataStruct, ptr %7, i32 0, i32 4
  store i8 1, ptr %8, align 8
  ret void
}

; Function Attrs: nounwind uwtable
define void @Java_com_sun_imageio_plugins_jpeg_JPEGImageWriter_abortWrite(ptr noundef %0, ptr noundef %1, i64 noundef %2) #0 {
  %4 = alloca ptr, align 8
  %5 = alloca ptr, align 8
  %6 = alloca i64, align 8
  %7 = alloca ptr, align 8
  store ptr %0, ptr %4, align 8
  store ptr %1, ptr %5, align 8
  store i64 %2, ptr %6, align 8
  %8 = load i64, ptr %6, align 8
  %9 = inttoptr i64 %8 to ptr
  store ptr %9, ptr %7, align 8
  %10 = load ptr, ptr %7, align 8
  %11 = icmp eq ptr %10, null
  br i1 %11, label %12, label %14

12:                                               ; preds = %3
  %13 = load ptr, ptr %4, align 8
  call void @JNU_ThrowByName(ptr noundef %13, ptr noundef @.str.25, ptr noundef @.str.37)
  br label %18

14:                                               ; preds = %3
  %15 = load ptr, ptr %4, align 8
  %16 = load ptr, ptr %5, align 8
  %17 = load ptr, ptr %7, align 8
  call void @imageio_abort(ptr noundef %15, ptr noundef %16, ptr noundef %17)
  br label %18

18:                                               ; preds = %14, %12
  ret void
}