; Function Attrs: nounwind uwtable
define void @Java_com_sun_imageio_plugins_jpeg_JPEGImageWriter_abortWrite(ptr noundef %0, ptr nocapture noundef readnone %1, i64 noundef %2) local_unnamed_addr #1 {
  %4 = icmp eq i64 %2, 0
  br i1 %4, label %5, label %6

5:                                                ; preds = %3
  tail call void @JNU_ThrowByName(ptr noundef %0, ptr noundef nonnull @.str.25, ptr noundef nonnull @.str.37) #13
  br label %9

6:                                                ; preds = %3
  %7 = inttoptr i64 %2 to ptr
  %8 = getelementptr inbounds i8, ptr %7, i64 96
  store i8 1, ptr %8, align 8
  br label %9

9:                                                ; preds = %6, %5
  ret void
}